Certificate:
    Data:
        Version: 3 (0x2)
        Serial Number:
            2f:9f:1a:f9:1c:00:7c:29:ca:1c:cf:48:33:d9:0f:da:7c:34:9e:d4
        Signature Algorithm: sha256WithRSAEncryption
        Issuer: C=DE, ST=SH, O=stka, CN=CA/emailAddress=stefan@kania-online.de
        Validity
            Not Before: Dec  3 13:12:19 2021 GMT
            Not After : Dec  1 13:12:19 2031 GMT
        Subject: C=DE, ST=SH, L=St. Michel, O=stka, OU=wildcard, CN=*.example.net
        Subject Public Key Info:
            Public Key Algorithm: rsaEncryption
                RSA Public-Key: (2048 bit)
                Modulus:
                    00:9e:5b:20:7c:2d:ea:6a:4e:51:20:b9:62:1b:68:
                    89:5c:bd:af:df:c4:e6:ef:5b:9c:aa:0a:e9:d3:e5:
                    e2:64:64:41:f4:a1:aa:1a:ff:fb:d8:06:51:2f:f2:
                    29:32:bf:ea:9e:d8:94:ec:b0:75:8b:69:11:b4:4d:
                    8d:1f:2c:58:65:22:1d:cf:16:58:71:a6:d3:f7:25:
                    b1:1d:28:3b:93:f3:70:31:ae:a6:bb:d0:da:ab:53:
                    08:99:54:71:67:72:65:69:c0:ce:6f:99:6d:92:2e:
                    37:17:ed:55:69:2d:34:eb:e4:bf:8a:d2:2f:b2:c8:
                    28:b4:d1:0f:76:f2:3f:89:b9:41:10:2f:ae:2c:42:
                    2b:36:3d:86:02:97:27:21:b5:5b:39:16:c8:d5:e7:
                    0f:3b:41:ce:b5:93:60:48:de:4a:4b:23:7f:6b:b9:
                    7b:c5:cc:a7:81:b4:5f:02:cc:7a:b4:af:27:02:bc:
                    72:a7:dc:51:18:4b:df:28:c6:fd:b3:8c:2a:3d:e7:
                    17:b7:f6:98:01:80:83:4e:7a:d6:eb:b4:68:65:b8:
                    cf:71:f0:65:4f:53:e0:c7:0c:c5:b7:6d:92:50:ca:
                    3c:16:a4:c7:b2:d1:e6:9c:4b:4f:36:ca:8a:d7:60:
                    da:3e:2b:7c:2e:be:5e:b6:fa:af:cb:40:8b:ff:46:
                    8c:c1
                Exponent: 65537 (0x10001)
        X509v3 extensions:
            X509v3 Basic Constraints: 
                CA:FALSE
            Netscape Comment: 
                OpenSSL Generated Certificate
            X509v3 Subject Key Identifier: 
                C8:F4:02:7F:1C:33:85:DE:59:D8:02:62:ED:DF:36:F2:19:12:EB:CB
            X509v3 Authority Key Identifier: 
                keyid:6F:95:07:A5:15:F0:1A:1C:A2:62:1E:E6:B6:92:A1:02:A4:46:04:EB

    Signature Algorithm: sha256WithRSAEncryption
         d2:1a:29:43:bb:0c:d7:fb:7b:85:21:82:9c:47:40:bc:6e:ae:
         a2:b4:34:96:5f:5c:6f:00:2b:fa:02:e3:c2:3e:68:46:7e:4e:
         fd:cb:c5:5f:ee:a9:7a:ab:44:92:54:25:f5:ee:cc:06:4e:63:
         fd:f7:1b:0f:a9:29:97:7e:bc:86:39:c9:31:bd:48:3f:cf:f5:
         3e:4e:a5:88:26:64:24:20:a2:55:c7:57:c3:bb:af:a5:42:31:
         e8:34:bf:f9:38:7e:3d:ff:c5:80:0e:ec:c6:bd:cf:6f:5a:a2:
         a4:db:1c:ef:ba:57:b7:62:a5:ce:9b:17:87:cc:38:da:c5:1b:
         fc:fc:98:b2:f3:af:81:c5:16:66:55:63:27:2f:af:74:7b:13:
         81:43:b9:45:b1:0f:fe:7c:52:a4:5a:94:63:60:ab:3c:1f:3e:
         83:ee:d0:ea:2f:06:e4:86:58:df:c6:e1:63:5a:63:4c:11:51:
         0c:fe:3f:93:89:d0:a9:bb:99:e4:7e:6f:1c:f6:04:d7:70:9a:
         51:72:ab:78:1c:21:a8:01:0b:87:83:4e:a8:1c:f7:fe:85:37:
         45:2c:93:9b:3f:38:3a:2b:6c:a8:05:d1:4c:3f:37:31:27:e7:
         05:eb:e7:fc:1b:e9:e9:6f:fb:9f:6b:00:53:2f:d3:1e:3f:bd:
         b0:ed:e3:32
-----BEGIN CERTIFICATE-----
MIIDzzCCAregAwIBAgIUL58a+RwAfCnKHM9IM9kP2nw0ntQwDQYJKoZIhvcNAQEL
BQAwXTELMAkGA1UEBhMCREUxCzAJBgNVBAgMAlNIMQ0wCwYDVQQKDARzdGthMQsw
CQYDVQQDDAJDQTElMCMGCSqGSIb3DQEJARYWc3RlZmFuQGthbmlhLW9ubGluZS5k
ZTAeFw0yMTEyMDMxMzEyMTlaFw0zMTEyMDExMzEyMTlaMGkxCzAJBgNVBAYTAkRF
MQswCQYDVQQIDAJTSDETMBEGA1UEBwwKU3QuIE1pY2hlbDENMAsGA1UECgwEc3Rr
YTERMA8GA1UECwwId2lsZGNhcmQxFjAUBgNVBAMMDSouZXhhbXBsZS5uZXQwggEi
MA0GCSqGSIb3DQEBAQUAA4IBDwAwggEKAoIBAQCeWyB8LepqTlEguWIbaIlcva/f
xObvW5yqCunT5eJkZEH0oaoa//vYBlEv8ikyv+qe2JTssHWLaRG0TY0fLFhlIh3P
FlhxptP3JbEdKDuT83Axrqa70NqrUwiZVHFncmVpwM5vmW2SLjcX7VVpLTTr5L+K
0i+yyCi00Q928j+JuUEQL64sQis2PYYClychtVs5FsjV5w87Qc61k2BI3kpLI39r
uXvFzKeBtF8CzHq0rycCvHKn3FEYS98oxv2zjCo95xe39pgBgINOetbrtGhluM9x
8GVPU+DHDMW3bZJQyjwWpMey0eacS082yorXYNo+K3wuvl62+q/LQIv/RozBAgMB
AAGjezB5MAkGA1UdEwQCMAAwLAYJYIZIAYb4QgENBB8WHU9wZW5TU0wgR2VuZXJh
dGVkIENlcnRpZmljYXRlMB0GA1UdDgQWBBTI9AJ/HDOF3lnYAmLt3zbyGRLryzAf
BgNVHSMEGDAWgBRvlQelFfAaHKJiHua2kqECpEYE6zANBgkqhkiG9w0BAQsFAAOC
AQEA0hopQ7sM1/t7hSGCnEdAvG6uorQ0ll9cbwAr+gLjwj5oRn5O/cvFX+6peqtE
klQl9e7MBk5j/fcbD6kpl368hjnJMb1IP8/1Pk6liCZkJCCiVcdXw7uvpUIx6DS/
+Th+Pf/FgA7sxr3Pb1qipNsc77pXt2KlzpsXh8w42sUb/PyYsvOvgcUWZlVjJy+v
dHsTgUO5RbEP/nxSpFqUY2CrPB8+g+7Q6i8G5IZY38bhY1pjTBFRDP4/k4nQqbuZ
5H5vHPYE13CaUXKreBwhqAELh4NOqBz3/oU3RSyTmz84OitsqAXRTD83MSfnBevn
/Bvp6W/7n2sAUy/THj+9sO3jMg==
-----END CERTIFICATE-----
