Certificate:
    Data:
        Version: 3 (0x2)
        Serial Number:
            6e:c2:88:16:ba:e8:ec:ed:b0:99:b1:b5:82:ce:87:07:b6:7b:fc:1b
        Signature Algorithm: sha256WithRSAEncryption
        Issuer: C=DE, ST=SH, O=stka, OU=CA, CN=Stefan Kania
        Validity
            Not Before: Jun  8 16:08:33 2024 GMT
            Not After : Jun  8 16:08:33 2027 GMT
        Subject: C=DE, ST=SH, O=stka, OU=CA, CN=Stefan Kania
        Subject Public Key Info:
            Public Key Algorithm: rsaEncryption
                RSA Public-Key: (2048 bit)
                Modulus:
                    00:b6:41:32:98:2a:84:f0:8a:1f:14:55:ac:d8:82:
                    29:ed:16:96:ba:2f:e2:32:4b:0e:3d:c6:19:f7:bd:
                    4f:f2:63:a0:fd:3d:75:a4:0d:46:07:ca:38:63:6e:
                    e4:df:e2:9c:18:ea:b5:02:b4:e7:cb:2c:08:94:a3:
                    cc:74:ae:d4:24:48:5e:b9:52:71:b3:4f:f3:9f:28:
                    22:00:b7:c0:a4:0a:ff:db:12:4d:ca:5e:8d:61:4a:
                    c7:1d:2a:33:92:e6:66:a6:3d:34:ac:72:4d:f0:6c:
                    71:5c:80:d5:d9:56:7d:f6:91:59:2c:83:c4:0b:a7:
                    ff:87:95:65:d6:76:65:69:54:a6:bc:09:97:f9:8d:
                    f8:b3:76:9e:70:81:f4:ea:94:55:12:2d:47:a7:03:
                    e3:74:7d:2d:02:b5:76:fc:9a:2e:ef:a5:27:19:0b:
                    20:d2:72:2f:6d:d9:23:bf:f7:1a:ba:20:eb:ad:dd:
                    5d:bd:78:63:86:52:bb:2d:78:6f:8d:3e:f6:7b:f6:
                    4e:66:c6:86:f5:8d:33:73:59:ec:f7:2a:5a:cd:56:
                    5c:13:16:21:8d:42:89:d3:ae:30:de:01:a6:b5:e7:
                    11:2f:03:83:6c:b2:eb:67:f9:36:f5:90:ed:5e:b1:
                    90:1d:fc:10:ed:fa:58:db:07:e8:9f:e0:35:db:ef:
                    5d:bb
                Exponent: 65537 (0x10001)
        X509v3 extensions:
            X509v3 Subject Key Identifier: 
                50:74:46:2B:45:0F:D0:E0:61:00:EB:C5:C9:5D:2D:6E:65:C1:44:F4
            X509v3 Authority Key Identifier: 
                keyid:50:74:46:2B:45:0F:D0:E0:61:00:EB:C5:C9:5D:2D:6E:65:C1:44:F4

            X509v3 Basic Constraints: critical
                CA:TRUE
    Signature Algorithm: sha256WithRSAEncryption
         94:7e:ca:e0:32:af:05:30:16:2a:6b:1e:7c:8a:4e:97:8d:6c:
         82:18:07:16:34:aa:d2:38:c4:80:1c:85:60:38:85:f0:d9:9e:
         c6:f4:17:61:7f:49:cf:f0:de:36:4a:23:37:1d:e0:a0:cd:57:
         13:77:9f:0f:b6:a8:80:73:c6:ae:1d:ad:6f:e7:71:5b:2d:21:
         79:c3:16:c3:13:6e:d2:d9:c9:94:e2:a8:c5:86:3f:bb:53:db:
         ef:cf:3b:38:6a:22:b3:d4:0b:93:96:3c:8d:d3:72:57:e1:3f:
         6f:35:8c:46:35:53:b4:05:59:eb:92:04:91:73:66:db:32:43:
         7d:7c:b4:4e:b5:4f:8a:6c:4d:e5:77:74:49:ce:b5:10:22:dc:
         30:39:77:90:57:9a:8e:67:f7:bf:4d:7d:78:b4:99:ed:64:1f:
         aa:ef:c2:8e:37:d4:ac:fd:cc:cd:33:26:50:ef:42:53:d3:53:
         cd:71:7f:a4:f4:0f:3c:63:ae:40:fd:4e:1a:75:57:9f:2a:91:
         a5:36:5d:fa:23:9e:86:30:5e:9b:56:a9:11:64:d2:93:4c:c5:
         59:5f:2e:7e:aa:1a:28:fb:2a:12:7f:6f:7b:25:16:be:90:88:
         81:e5:ea:ce:f8:b1:66:79:9d:58:92:af:da:a3:2c:ba:26:3f:
         b3:ba:46:c3
-----BEGIN CERTIFICATE-----
MIIDezCCAmOgAwIBAgIUbsKIFrro7O2wmbG1gs6HB7Z7/BswDQYJKoZIhvcNAQEL
BQAwTTELMAkGA1UEBhMCREUxCzAJBgNVBAgMAlNIMQ0wCwYDVQQKDARzdGthMQsw
CQYDVQQLDAJDQTEVMBMGA1UEAwwMU3RlZmFuIEthbmlhMB4XDTI0MDYwODE2MDgz
M1oXDTI3MDYwODE2MDgzM1owTTELMAkGA1UEBhMCREUxCzAJBgNVBAgMAlNIMQ0w
CwYDVQQKDARzdGthMQswCQYDVQQLDAJDQTEVMBMGA1UEAwwMU3RlZmFuIEthbmlh
MIIBIjANBgkqhkiG9w0BAQEFAAOCAQ8AMIIBCgKCAQEAtkEymCqE8IofFFWs2IIp
7RaWui/iMksOPcYZ971P8mOg/T11pA1GB8o4Y27k3+KcGOq1ArTnyywIlKPMdK7U
JEheuVJxs0/znygiALfApAr/2xJNyl6NYUrHHSozkuZmpj00rHJN8GxxXIDV2VZ9
9pFZLIPEC6f/h5Vl1nZlaVSmvAmX+Y34s3aecIH06pRVEi1HpwPjdH0tArV2/Jou
76UnGQsg0nIvbdkjv/cauiDrrd1dvXhjhlK7LXhvjT72e/ZOZsaG9Y0zc1ns9ypa
zVZcExYhjUKJ064w3gGmtecRLwODbLLrZ/k29ZDtXrGQHfwQ7fpY2wfon+A12+9d
uwIDAQABo1MwUTAdBgNVHQ4EFgQUUHRGK0UP0OBhAOvFyV0tbmXBRPQwHwYDVR0j
BBgwFoAUUHRGK0UP0OBhAOvFyV0tbmXBRPQwDwYDVR0TAQH/BAUwAwEB/zANBgkq
hkiG9w0BAQsFAAOCAQEAlH7K4DKvBTAWKmsefIpOl41sghgHFjSq0jjEgByFYDiF
8NmexvQXYX9Jz/DeNkojNx3goM1XE3efD7aogHPGrh2tb+dxWy0hecMWwxNu0tnJ
lOKoxYY/u1Pb7887OGois9QLk5Y8jdNyV+E/bzWMRjVTtAVZ65IEkXNm2zJDfXy0
TrVPimxN5Xd0Sc61ECLcMDl3kFeajmf3v019eLSZ7WQfqu/CjjfUrP3MzTMmUO9C
U9NTzXF/pPQPPGOuQP1OGnVXnyqRpTZd+iOehjBem1apEWTSk0zFWV8ufqoaKPsq
En9veyUWvpCIgeXqzvixZnmdWJKv2qMsuiY/s7pGww==
-----END CERTIFICATE-----
