Certificate:
    Data:
        Version: 3 (0x2)
        Serial Number:
            6e:c2:88:16:ba:e8:ec:ed:b0:99:b1:b5:82:ce:87:07:b6:7b:fc:1c
        Signature Algorithm: sha256WithRSAEncryption
        Issuer: C=DE, ST=SH, O=stka, OU=CA, CN=Stefan Kania
        Validity
            Not Before: Jun  8 16:10:06 2024 GMT
            Not After : Jun  6 16:10:06 2034 GMT
        Subject: C=DE, ST=SH, L=St. Michaelisdonn, O=stka, OU=stka, CN=*.example.net
        Subject Public Key Info:
            Public Key Algorithm: rsaEncryption
                RSA Public-Key: (2048 bit)
                Modulus:
                    00:b0:37:8a:d7:98:ac:a4:58:2f:45:d5:11:57:ec:
                    94:a5:a2:bb:4a:7a:3e:5a:02:9e:14:01:22:59:70:
                    e6:bc:d2:ca:db:0e:de:b7:05:aa:cf:f0:e8:e1:6b:
                    fa:e0:f6:e7:7f:09:15:99:81:c1:58:4f:76:98:3a:
                    10:60:88:87:93:4d:6a:3a:6e:df:75:6f:17:21:3f:
                    b1:34:33:9b:9c:08:a3:4b:7c:0b:84:20:a5:8b:f0:
                    93:c5:b8:2e:b8:9b:12:1a:9e:8f:2f:d8:40:f2:3a:
                    3c:e1:9d:57:80:a3:80:47:a0:b4:a4:17:d8:45:8d:
                    1a:e0:e2:5f:f8:5c:a9:88:17:9d:c5:35:ee:ba:9a:
                    57:6d:8a:17:37:a0:91:9b:0c:71:f2:01:46:f4:71:
                    82:2d:f9:a0:16:4a:c4:d3:e9:0b:35:90:a1:3f:da:
                    5f:e9:e5:33:ae:a4:59:31:c3:6b:12:3a:bd:ee:ba:
                    35:d3:c2:8e:c0:bc:46:37:24:9d:37:8d:d5:8c:4e:
                    9d:72:50:69:2b:36:dd:75:71:9e:b5:3c:36:12:12:
                    ff:c0:c0:41:44:91:5f:6f:78:0d:a8:e7:47:4a:87:
                    20:8c:d5:c7:de:c6:ec:f0:7c:2c:fd:0a:f0:4f:37:
                    d4:6d:2a:4c:d0:18:54:82:a1:6c:ee:26:34:79:d5:
                    2b:15
                Exponent: 65537 (0x10001)
        X509v3 extensions:
            X509v3 Basic Constraints: 
                CA:FALSE
            Netscape Comment: 
                OpenSSL Generated Certificate
            X509v3 Subject Key Identifier: 
                AA:71:FF:D4:6B:CA:53:8E:28:FB:47:5B:9C:14:D3:9A:51:2A:85:5A
            X509v3 Authority Key Identifier: 
                keyid:50:74:46:2B:45:0F:D0:E0:61:00:EB:C5:C9:5D:2D:6E:65:C1:44:F4

    Signature Algorithm: sha256WithRSAEncryption
         a9:e2:ee:55:8a:7c:00:4a:b2:03:8d:6f:73:3d:77:b4:fc:49:
         88:de:d4:82:d4:6c:ca:ee:9e:12:ba:12:48:9e:bd:84:3c:6c:
         e1:44:e0:4f:16:dc:77:03:f9:c6:56:7a:1c:3b:be:91:58:71:
         8a:b9:f9:37:cd:48:27:df:da:66:a2:62:6a:3e:74:8b:82:87:
         36:fe:4d:ac:33:9f:53:4f:c9:42:b9:2b:cc:af:dd:b2:5f:97:
         4f:17:26:d5:20:8b:7f:4e:72:3f:b7:44:1b:f9:84:03:02:f2:
         d3:6c:ca:cf:06:32:83:c1:71:55:23:5b:7c:e4:7b:ad:db:a9:
         ed:90:b0:bf:a4:b9:84:4c:85:5f:49:ee:13:b6:5b:a7:d4:b6:
         a1:c7:82:8e:b2:75:ad:20:21:e5:26:7f:ef:a2:f8:f3:07:6b:
         86:07:77:db:25:22:0d:13:a8:27:da:72:fb:d7:55:da:c1:3d:
         e1:43:48:22:da:d1:0a:a3:d4:55:62:b0:38:4d:a0:43:a1:1c:
         4e:37:36:c9:76:f0:d5:ac:39:9c:b8:f6:eb:15:23:14:6e:97:
         3f:1e:6d:54:ca:11:d0:6c:a5:7f:b0:c2:03:3a:87:61:d8:7a:
         2c:30:9b:8b:15:45:6b:43:ff:7a:6a:5c:96:78:b6:18:4a:f2:
         6b:87:f8:de
-----BEGIN CERTIFICATE-----
MIIDwjCCAqqgAwIBAgIUbsKIFrro7O2wmbG1gs6HB7Z7/BwwDQYJKoZIhvcNAQEL
BQAwTTELMAkGA1UEBhMCREUxCzAJBgNVBAgMAlNIMQ0wCwYDVQQKDARzdGthMQsw
CQYDVQQLDAJDQTEVMBMGA1UEAwwMU3RlZmFuIEthbmlhMB4XDTI0MDYwODE2MTAw
NloXDTM0MDYwNjE2MTAwNlowbDELMAkGA1UEBhMCREUxCzAJBgNVBAgMAlNIMRow
GAYDVQQHDBFTdC4gTWljaGFlbGlzZG9ubjENMAsGA1UECgwEc3RrYTENMAsGA1UE
CwwEc3RrYTEWMBQGA1UEAwwNKi5leGFtcGxlLm5ldDCCASIwDQYJKoZIhvcNAQEB
BQADggEPADCCAQoCggEBALA3iteYrKRYL0XVEVfslKWiu0p6PloCnhQBIllw5rzS
ytsO3rcFqs/w6OFr+uD2538JFZmBwVhPdpg6EGCIh5NNajpu33VvFyE/sTQzm5wI
o0t8C4QgpYvwk8W4LribEhqejy/YQPI6POGdV4CjgEegtKQX2EWNGuDiX/hcqYgX
ncU17rqaV22KFzegkZsMcfIBRvRxgi35oBZKxNPpCzWQoT/aX+nlM66kWTHDaxI6
ve66NdPCjsC8RjcknTeN1YxOnXJQaSs23XVxnrU8NhIS/8DAQUSRX294DajnR0qH
IIzVx97G7PB8LP0K8E831G0qTNAYVIKhbO4mNHnVKxUCAwEAAaN7MHkwCQYDVR0T
BAIwADAsBglghkgBhvhCAQ0EHxYdT3BlblNTTCBHZW5lcmF0ZWQgQ2VydGlmaWNh
dGUwHQYDVR0OBBYEFKpx/9RrylOOKPtHW5wU05pRKoVaMB8GA1UdIwQYMBaAFFB0
RitFD9DgYQDrxcldLW5lwUT0MA0GCSqGSIb3DQEBCwUAA4IBAQCp4u5VinwASrID
jW9zPXe0/EmI3tSC1GzK7p4SuhJInr2EPGzhROBPFtx3A/nGVnocO76RWHGKufk3
zUgn39pmomJqPnSLgoc2/k2sM59TT8lCuSvMr92yX5dPFybVIIt/TnI/t0Qb+YQD
AvLTbMrPBjKDwXFVI1t85Hut26ntkLC/pLmETIVfSe4Ttlun1Lahx4KOsnWtICHl
Jn/vovjzB2uGB3fbJSINE6gn2nL711XawT3hQ0gi2tEKo9RVYrA4TaBDoRxONzbJ
dvDVrDmcuPbrFSMUbpc/Hm1UyhHQbKV/sMIDOodh2HosMJuLFUVrQ/96alyWeLYY
SvJrh/je
-----END CERTIFICATE-----
