Certificate:
    Data:
        Version: 3 (0x2)
        Serial Number:
            2f:9f:1a:f9:1c:00:7c:29:ca:1c:cf:48:33:d9:0f:da:7c:34:9e:cb
        Signature Algorithm: sha256WithRSAEncryption
        Issuer: C=DE, ST=SH, O=stka, CN=CA/emailAddress=stefan@kania-online.de
        Validity
            Not Before: Apr  8 17:17:08 2021 GMT
            Not After : Apr  7 17:17:08 2024 GMT
        Subject: C=DE, ST=SH, O=stka, CN=CA/emailAddress=stefan@kania-online.de
        Subject Public Key Info:
            Public Key Algorithm: rsaEncryption
                RSA Public-Key: (2048 bit)
                Modulus:
                    00:d9:08:7a:11:b7:b7:7b:44:bf:84:0f:86:4c:37:
                    3a:53:e6:95:dc:65:01:fe:c2:98:52:10:48:fc:06:
                    8d:99:e4:5b:9b:8a:cf:02:04:bd:bd:95:0c:41:f9:
                    28:8e:dc:14:6f:40:fb:ca:3a:82:3a:18:b5:c3:2e:
                    13:99:45:aa:76:17:08:13:cc:96:a9:e9:40:e0:a4:
                    3e:3f:e6:f9:cb:af:47:ff:30:78:f2:39:b4:d2:51:
                    dd:16:8e:6b:40:cc:20:89:17:13:78:be:27:49:8a:
                    ce:15:45:9e:4c:cc:fa:bf:13:ce:c4:b5:3d:e0:e2:
                    2d:64:6d:25:75:88:6c:db:d5:18:fc:c2:22:28:51:
                    da:c0:f1:69:2b:01:3a:63:fb:1c:ae:31:d8:cc:e1:
                    c4:bc:0c:b4:04:4a:17:71:92:23:46:00:d2:dd:b0:
                    29:80:63:fe:53:6c:5b:da:a6:9e:11:0a:53:eb:b4:
                    fd:2f:80:52:31:93:59:8e:c9:6c:50:d8:41:de:d0:
                    80:64:ec:4d:f6:49:65:29:81:fa:1c:a8:af:37:6d:
                    51:33:23:33:cf:2a:dc:7b:7b:4e:46:73:ad:35:d6:
                    4e:3a:d7:ba:4c:88:c5:55:c2:42:2c:72:06:c2:26:
                    66:65:ac:a8:c3:0f:9c:d0:3d:d2:cb:91:92:5f:8e:
                    06:51
                Exponent: 65537 (0x10001)
        X509v3 extensions:
            X509v3 Subject Key Identifier: 
                6F:95:07:A5:15:F0:1A:1C:A2:62:1E:E6:B6:92:A1:02:A4:46:04:EB
            X509v3 Authority Key Identifier: 
                keyid:6F:95:07:A5:15:F0:1A:1C:A2:62:1E:E6:B6:92:A1:02:A4:46:04:EB

            X509v3 Basic Constraints: critical
                CA:TRUE
    Signature Algorithm: sha256WithRSAEncryption
         ac:45:ca:48:b5:1e:3a:ed:a0:97:7a:a1:2c:a2:1a:bb:3e:c7:
         26:75:ba:87:6b:e4:9d:dc:34:46:ce:e4:aa:fa:58:e4:c3:b5:
         4d:7b:c8:4f:94:62:d9:29:16:e8:f2:3d:62:03:46:37:01:f5:
         7f:f5:eb:e7:39:46:54:e4:71:d4:e3:31:77:1b:57:98:bb:4c:
         dd:95:ce:ed:0c:56:c5:a1:3e:75:b8:c7:93:ce:98:0d:aa:4c:
         32:e9:02:e3:08:1f:a6:bf:7d:c5:64:bb:1a:61:24:d5:b3:62:
         b9:cc:7c:31:7c:45:95:76:8a:bd:cb:ef:c0:4f:22:81:04:9f:
         6b:03:c0:ae:18:2a:39:c6:3a:99:d0:9c:75:67:02:12:c6:a8:
         6e:c3:03:ee:c5:99:a6:c5:62:eb:85:8e:e1:c9:ee:00:50:23:
         4a:7a:e7:3c:36:bc:55:59:22:e1:c8:3b:68:20:95:37:e1:f5:
         9f:aa:d7:47:b5:3f:48:ce:78:a9:d5:b9:78:fe:0b:45:d8:45:
         33:ae:41:6c:5c:32:3f:a2:34:b0:2d:7e:23:f4:a8:bc:be:e7:
         1d:93:fb:be:bd:cf:55:d2:fc:1e:50:bc:0b:42:a5:29:d9:dd:
         85:df:02:0b:b8:d0:c7:72:9a:53:92:f2:af:b6:d6:91:e8:c9:
         78:f6:b6:a9
-----BEGIN CERTIFICATE-----
MIIDmzCCAoOgAwIBAgIUL58a+RwAfCnKHM9IM9kP2nw0nsswDQYJKoZIhvcNAQEL
BQAwXTELMAkGA1UEBhMCREUxCzAJBgNVBAgMAlNIMQ0wCwYDVQQKDARzdGthMQsw
CQYDVQQDDAJDQTElMCMGCSqGSIb3DQEJARYWc3RlZmFuQGthbmlhLW9ubGluZS5k
ZTAeFw0yMTA0MDgxNzE3MDhaFw0yNDA0MDcxNzE3MDhaMF0xCzAJBgNVBAYTAkRF
MQswCQYDVQQIDAJTSDENMAsGA1UECgwEc3RrYTELMAkGA1UEAwwCQ0ExJTAjBgkq
hkiG9w0BCQEWFnN0ZWZhbkBrYW5pYS1vbmxpbmUuZGUwggEiMA0GCSqGSIb3DQEB
AQUAA4IBDwAwggEKAoIBAQDZCHoRt7d7RL+ED4ZMNzpT5pXcZQH+wphSEEj8Bo2Z
5Fubis8CBL29lQxB+SiO3BRvQPvKOoI6GLXDLhOZRap2FwgTzJap6UDgpD4/5vnL
r0f/MHjyObTSUd0WjmtAzCCJFxN4vidJis4VRZ5MzPq/E87EtT3g4i1kbSV1iGzb
1Rj8wiIoUdrA8WkrATpj+xyuMdjM4cS8DLQEShdxkiNGANLdsCmAY/5TbFvapp4R
ClPrtP0vgFIxk1mOyWxQ2EHe0IBk7E32SWUpgfocqK83bVEzIzPPKtx7e05Gc601
1k4617pMiMVVwkIscgbCJmZlrKjDD5zQPdLLkZJfjgZRAgMBAAGjUzBRMB0GA1Ud
DgQWBBRvlQelFfAaHKJiHua2kqECpEYE6zAfBgNVHSMEGDAWgBRvlQelFfAaHKJi
Hua2kqECpEYE6zAPBgNVHRMBAf8EBTADAQH/MA0GCSqGSIb3DQEBCwUAA4IBAQCs
RcpItR467aCXeqEsohq7PscmdbqHa+Sd3DRGzuSq+ljkw7VNe8hPlGLZKRbo8j1i
A0Y3AfV/9evnOUZU5HHU4zF3G1eYu0zdlc7tDFbFoT51uMeTzpgNqkwy6QLjCB+m
v33FZLsaYSTVs2K5zHwxfEWVdoq9y+/ATyKBBJ9rA8CuGCo5xjqZ0Jx1ZwISxqhu
wwPuxZmmxWLrhY7hye4AUCNKeuc8NrxVWSLhyDtoIJU34fWfqtdHtT9Iznip1bl4
/gtF2EUzrkFsXDI/ojSwLX4j9Ki8vucdk/u+vc9V0vweULwLQqUp2d2F3wILuNDH
cppTkvKvttaR6Ml49rap
-----END CERTIFICATE-----
